target datalayout = "e-m:e-p270:32:32-p271:32:32-p272:64:64-i64:64-i128:128-f80:128-n8:16:32:64-S128"
target triple = "x86_64-pc-linux-gnu"

%"class.icu_77::UObject" = type { ptr }
%"class.icu_77::Calendar" = type <{ %"class.icu_77::UObject", [24 x i32], [24 x i8], i8, [7 x i8], double, ptr, i8, i16, i8, i32, i32, i32, i8, i8, i16, [4 x i8], ptr, ptr }>

; Function Attrs: mustprogress nounwind uwtable
define noundef signext i8 @_ZNK6icu_778Calendar9isLenientEv(ptr noundef nonnull align 8 dereferenceable(192) %0) #0 align 2 {
  %2 = alloca ptr, align 8
  store ptr %0, ptr %2, align 8, !tbaa !37
  %3 = load ptr, ptr %2, align 8
  %4 = getelementptr inbounds nuw %"class.icu_77::Calendar", ptr %3, i32 0, i32 7
  %5 = load i8, ptr %4, align 8
  %6 = lshr i8 %5, 4
  %7 = and i8 %6, 1
  %8 = trunc i8 %7 to i1
  %9 = zext i1 %8 to i8
  ret i8 %9
}

; Function Attrs: mustprogress uwtable
define void @_ZN6icu_778Calendar10updateTimeER10UErrorCode(ptr noundef nonnull align 8 dereferenceable(192) %0, ptr noundef nonnull align 4 dereferenceable(4) %1) #1 align 2 {
  %3 = alloca ptr, align 8
  %4 = alloca ptr, align 8
  store ptr %0, ptr %3, align 8, !tbaa !37
  store ptr %1, ptr %4, align 8, !tbaa !22
  %5 = load ptr, ptr %3, align 8
  %6 = load ptr, ptr %4, align 8, !tbaa !22
  %7 = load ptr, ptr %5, align 8, !tbaa !25
  %8 = getelementptr inbounds ptr, ptr %7, i64 31
  %9 = load ptr, ptr %8, align 8
  call void %9(ptr noundef nonnull align 8 dereferenceable(192) %5, ptr noundef nonnull align 4 dereferenceable(4) %6)
  %10 = load ptr, ptr %4, align 8, !tbaa !22
  %11 = load i32, ptr %10, align 4, !tbaa !15
  %12 = call noundef signext i8 @_ZL9U_FAILURE10UErrorCode(i32 noundef %11)
  %13 = icmp ne i8 %12, 0
  br i1 %13, label %14, label %15

14:                                               ; preds = %2
  br label %38

15:                                               ; preds = %2
  %16 = call noundef signext i8 @_ZNK6icu_778Calendar9isLenientEv(ptr noundef nonnull align 8 dereferenceable(192) %5)
  %17 = icmp ne i8 %16, 0
  br i1 %17, label %24, label %18

18:                                               ; preds = %15
  %19 = getelementptr inbounds nuw %"class.icu_77::Calendar", ptr %5, i32 0, i32 7
  %20 = load i8, ptr %19, align 8
  %21 = lshr i8 %20, 2
  %22 = and i8 %21, 1
  %23 = trunc i8 %22 to i1
  br i1 %23, label %29, label %24

24:                                               ; preds = %18, %15
  %25 = getelementptr inbounds nuw %"class.icu_77::Calendar", ptr %5, i32 0, i32 7
  %26 = load i8, ptr %25, align 8
  %27 = and i8 %26, -3
  %28 = or i8 %27, 0
  store i8 %28, ptr %25, align 8
  br label %29

29:                                               ; preds = %24, %18
  %30 = getelementptr inbounds nuw %"class.icu_77::Calendar", ptr %5, i32 0, i32 7
  %31 = load i8, ptr %30, align 8
  %32 = and i8 %31, -2
  %33 = or i8 %32, 1
  store i8 %33, ptr %30, align 8
  %34 = getelementptr inbounds nuw %"class.icu_77::Calendar", ptr %5, i32 0, i32 7
  %35 = load i8, ptr %34, align 8
  %36 = and i8 %35, -9
  %37 = or i8 %36, 0
  store i8 %37, ptr %34, align 8
  br label %38

38:                                               ; preds = %29, %14
  ret void
}

; Function Attrs: inlinehint mustprogress nounwind uwtable
define internal noundef signext i8 @_ZL9U_FAILURE10UErrorCode(i32 noundef %0) #2 {
  %2 = alloca i32, align 4
  store i32 %0, ptr %2, align 4, !tbaa !15
  %3 = load i32, ptr %2, align 4, !tbaa !15
  %4 = icmp sgt i32 %3, 0
  %5 = zext i1 %4 to i8
  ret i8 %5
}

; Function Attrs: mustprogress uwtable
define noundef double @_ZNK6icu_778Calendar15getTimeInMillisER10UErrorCode(ptr noundef nonnull align 8 dereferenceable(192) %0, ptr noundef nonnull align 4 dereferenceable(4) %1) #1 align 2 {
  %3 = alloca double, align 8
  %4 = alloca ptr, align 8
  %5 = alloca ptr, align 8
  store ptr %0, ptr %4, align 8, !tbaa !37
  store ptr %1, ptr %5, align 8, !tbaa !22
  %6 = load ptr, ptr %4, align 8
  %7 = load ptr, ptr %5, align 8, !tbaa !22
  %8 = load i32, ptr %7, align 4, !tbaa !15
  %9 = call noundef signext i8 @_ZL9U_FAILURE10UErrorCode(i32 noundef %8)
  %10 = icmp ne i8 %9, 0
  br i1 %10, label %11, label %12

11:                                               ; preds = %2
  store double 0.000000e+00, ptr %3, align 8
  br label %28

12:                                               ; preds = %2
  %13 = getelementptr inbounds nuw %"class.icu_77::Calendar", ptr %6, i32 0, i32 7
  %14 = load i8, ptr %13, align 8
  %15 = and i8 %14, 1
  %16 = trunc i8 %15 to i1
  br i1 %16, label %19, label %17

17:                                               ; preds = %12
  %18 = load ptr, ptr %5, align 8, !tbaa !22
  call void @_ZN6icu_778Calendar10updateTimeER10UErrorCode(ptr noundef nonnull align 8 dereferenceable(192) %6, ptr noundef nonnull align 4 dereferenceable(4) %18)
  br label %19

19:                                               ; preds = %17, %12
  %20 = load ptr, ptr %5, align 8, !tbaa !22
  %21 = load i32, ptr %20, align 4, !tbaa !15
  %22 = call noundef signext i8 @_ZL9U_FAILURE10UErrorCode(i32 noundef %21)
  %23 = icmp ne i8 %22, 0
  br i1 %23, label %24, label %25

24:                                               ; preds = %19
  store double 0.000000e+00, ptr %3, align 8
  br label %28

25:                                               ; preds = %19
  %26 = getelementptr inbounds nuw %"class.icu_77::Calendar", ptr %6, i32 0, i32 5
  %27 = load double, ptr %26, align 8, !tbaa !63
  store double %27, ptr %3, align 8
  br label %28

28:                                               ; preds = %25, %24, %11
  %29 = load double, ptr %3, align 8
  ret double %29
}

; Function Attrs: inlinehint mustprogress uwtable
define linkonce_odr noundef double @_ZNK6icu_778Calendar7getTimeER10UErrorCode(ptr noundef nonnull align 8 dereferenceable(192) %0, ptr noundef nonnull align 4 dereferenceable(4) %1) #3 comdat align 2 {
  %3 = alloca ptr, align 8
  %4 = alloca ptr, align 8
  store ptr %0, ptr %3, align 8, !tbaa !37
  store ptr %1, ptr %4, align 8, !tbaa !22
  %5 = load ptr, ptr %3, align 8
  %6 = load ptr, ptr %4, align 8, !tbaa !22
  %7 = call noundef double @_ZNK6icu_778Calendar15getTimeInMillisER10UErrorCode(ptr noundef nonnull align 8 dereferenceable(192) %5, ptr noundef nonnull align 4 dereferenceable(4) %6)
  ret double %7
}

; Function Attrs: mustprogress uwtable
define noundef signext i8 @_ZNK6icu_778Calendar6equalsERKS0_R10UErrorCode(ptr noundef nonnull align 8 dereferenceable(192) %0, ptr noundef nonnull align 8 dereferenceable(192) %1, ptr noundef nonnull align 4 dereferenceable(4) %2) #1 align 2 {
  %4 = alloca ptr, align 8
  %5 = alloca ptr, align 8
  %6 = alloca ptr, align 8
  store ptr %0, ptr %4, align 8, !tbaa !37
  store ptr %1, ptr %5, align 8, !tbaa !37
  store ptr %2, ptr %6, align 8, !tbaa !22
  %7 = load ptr, ptr %4, align 8
  %8 = load ptr, ptr %5, align 8, !tbaa !37
  %9 = icmp eq ptr %7, %8
  br i1 %9, label %17, label %10

10:                                               ; preds = %3
  %11 = load ptr, ptr %6, align 8, !tbaa !22
  %12 = call noundef double @_ZNK6icu_778Calendar7getTimeER10UErrorCode(ptr noundef nonnull align 8 dereferenceable(192) %7, ptr noundef nonnull align 4 dereferenceable(4) %11)
  %13 = load ptr, ptr %5, align 8, !tbaa !37
  %14 = load ptr, ptr %6, align 8, !tbaa !22
  %15 = call noundef double @_ZNK6icu_778Calendar7getTimeER10UErrorCode(ptr noundef nonnull align 8 dereferenceable(192) %13, ptr noundef nonnull align 4 dereferenceable(4) %14)
  %16 = fcmp oeq double %12, %15
  br label %17

17:                                               ; preds = %10, %3
  %18 = phi i1 [ true, %3 ], [ %16, %10 ]
  %19 = zext i1 %18 to i8
  ret i8 %19
}