; Function Attrs: mustprogress uwtable
define noundef signext range(i8 0, 2) i8 @_ZNK6icu_778Calendar6equalsERKS0_R10UErrorCode(ptr noundef nonnull align 8 dereferenceable(192) %0, ptr noundef nonnull align 8 dereferenceable(192) %1, ptr noundef nonnull align 4 dereferenceable(4) %2) local_unnamed_addr #1 align 2 {
  %4 = icmp eq ptr %0, %1
  br i1 %4, label %42, label %5

5:                                                ; preds = %3
  %6 = load i32, ptr %2, align 4, !tbaa !13
  %7 = icmp slt i32 %6, 1
  br i1 %7, label %8, label %_ZNK6icu_778Calendar7getTimeER10UErrorCode.exit12

8:                                                ; preds = %5
  %9 = getelementptr inbounds nuw i8, ptr %0, i64 152
  %10 = load i8, ptr %9, align 8
  %11 = trunc i8 %10 to i1
  br i1 %11, label %_ZNK6icu_778Calendar7getTimeER10UErrorCode.exit.thread15, label %12

12:                                               ; preds = %8
  %13 = load ptr, ptr %0, align 8, !tbaa !15
  %14 = getelementptr inbounds nuw i8, ptr %13, i64 248
  %15 = load ptr, ptr %14, align 8
  tail call void %15(ptr noundef nonnull align 8 dereferenceable(192) %0, ptr noundef nonnull align 4 dereferenceable(4) %2)
  %16 = load i32, ptr %2, align 4, !tbaa !13
  %17 = icmp slt i32 %16, 1
  br i1 %17, label %_ZN6icu_778Calendar10updateTimeER10UErrorCode.exit.i.i, label %_ZNK6icu_778Calendar7getTimeER10UErrorCode.exit12

_ZN6icu_778Calendar10updateTimeER10UErrorCode.exit.i.i: ; preds = %12
  %18 = load i8, ptr %9, align 8
  %19 = and i8 %18, 20
  %or.cond.not.i.i.i = icmp eq i8 %19, 4
  %.v.i.i.i = select i1 %or.cond.not.i.i.i, i8 -10, i8 -12
  %20 = and i8 %.v.i.i.i, %18
  %21 = or disjoint i8 %20, 1
  store i8 %21, ptr %9, align 8
  %.pre.i.i = load i32, ptr %2, align 4, !tbaa !13
  %22 = icmp slt i32 %.pre.i.i, 1
  br i1 %22, label %_ZNK6icu_778Calendar7getTimeER10UErrorCode.exit.thread15, label %_ZNK6icu_778Calendar7getTimeER10UErrorCode.exit12

_ZNK6icu_778Calendar7getTimeER10UErrorCode.exit.thread15: ; preds = %8, %_ZN6icu_778Calendar10updateTimeER10UErrorCode.exit.i.i
  %.in = getelementptr inbounds nuw i8, ptr %0, i64 136
  %23 = load double, ptr %.in, align 8, !tbaa !53
  %24 = getelementptr inbounds nuw i8, ptr %1, i64 152
  %25 = load i8, ptr %24, align 8
  %26 = trunc i8 %25 to i1
  br i1 %26, label %_ZN6icu_778Calendar10updateTimeER10UErrorCode.exit.thread.i.i11, label %27

27:                                               ; preds = %_ZNK6icu_778Calendar7getTimeER10UErrorCode.exit.thread15
  %28 = load ptr, ptr %1, align 8, !tbaa !15
  %29 = getelementptr inbounds nuw i8, ptr %28, i64 248
  %30 = load ptr, ptr %29, align 8
  tail call void %30(ptr noundef nonnull align 8 dereferenceable(192) %1, ptr noundef nonnull align 4 dereferenceable(4) %2)
  %31 = load i32, ptr %2, align 4, !tbaa !13
  %32 = icmp slt i32 %31, 1
  br i1 %32, label %_ZN6icu_778Calendar10updateTimeER10UErrorCode.exit.i.i7, label %_ZNK6icu_778Calendar7getTimeER10UErrorCode.exit12

_ZN6icu_778Calendar10updateTimeER10UErrorCode.exit.i.i7: ; preds = %27
  %33 = load i8, ptr %24, align 8
  %34 = and i8 %33, 20
  %or.cond.not.i.i.i8 = icmp eq i8 %34, 4
  %.v.i.i.i9 = select i1 %or.cond.not.i.i.i8, i8 -10, i8 -12
  %35 = and i8 %.v.i.i.i9, %33
  %36 = or disjoint i8 %35, 1
  store i8 %36, ptr %24, align 8
  %.pre.i.i10 = load i32, ptr %2, align 4, !tbaa !13
  %37 = icmp slt i32 %.pre.i.i10, 1
  br i1 %37, label %_ZN6icu_778Calendar10updateTimeER10UErrorCode.exit.thread.i.i11, label %_ZNK6icu_778Calendar7getTimeER10UErrorCode.exit12

_ZN6icu_778Calendar10updateTimeER10UErrorCode.exit.thread.i.i11: ; preds = %_ZN6icu_778Calendar10updateTimeER10UErrorCode.exit.i.i7, %_ZNK6icu_778Calendar7getTimeER10UErrorCode.exit.thread15
  %38 = getelementptr inbounds nuw i8, ptr %1, i64 136
  %39 = load double, ptr %38, align 8, !tbaa !53
  br label %_ZNK6icu_778Calendar7getTimeER10UErrorCode.exit12

_ZNK6icu_778Calendar7getTimeER10UErrorCode.exit12: ; preds = %_ZN6icu_778Calendar10updateTimeER10UErrorCode.exit.i.i, %12, %5, %27, %_ZN6icu_778Calendar10updateTimeER10UErrorCode.exit.i.i7, %_ZN6icu_778Calendar10updateTimeER10UErrorCode.exit.thread.i.i11
  %.0.i.i14 = phi double [ %23, %_ZN6icu_778Calendar10updateTimeER10UErrorCode.exit.thread.i.i11 ], [ %23, %_ZN6icu_778Calendar10updateTimeER10UErrorCode.exit.i.i7 ], [ %23, %27 ], [ 0.000000e+00, %5 ], [ 0.000000e+00, %12 ], [ 0.000000e+00, %_ZN6icu_778Calendar10updateTimeER10UErrorCode.exit.i.i ]
  %.0.i.i6 = phi double [ %39, %_ZN6icu_778Calendar10updateTimeER10UErrorCode.exit.thread.i.i11 ], [ 0.000000e+00, %_ZN6icu_778Calendar10updateTimeER10UErrorCode.exit.i.i7 ], [ 0.000000e+00, %27 ], [ 0.000000e+00, %5 ], [ 0.000000e+00, %12 ], [ 0.000000e+00, %_ZN6icu_778Calendar10updateTimeER10UErrorCode.exit.i.i ]
  %40 = fcmp oeq double %.0.i.i14, %.0.i.i6
  %41 = zext i1 %40 to i8
  br label %42

42:                                               ; preds = %_ZNK6icu_778Calendar7getTimeER10UErrorCode.exit12, %3
  %43 = phi i8 [ 1, %3 ], [ %41, %_ZNK6icu_778Calendar7getTimeER10UErrorCode.exit12 ]
  ret i8 %43
}